; Function Attrs: uwtable
define void @_ZThn8_N5arrow2io21FixedSizeBufferWriter4SeekEl(ptr noalias sret(%"class.arrow::Status") align 8 %agg.result, ptr nocapture noundef readonly %this, i64 noundef %position) unnamed_addr #11 align 2 {
entry:
  tail call void @llvm.experimental.noalias.scope.decl(metadata !98)
  %impl_.i = getelementptr inbounds i8, ptr %this, i64 8
  %0 = load ptr, ptr %impl_.i, align 8, !noalias !98
  tail call void @llvm.experimental.noalias.scope.decl(metadata !101)
  %cmp.i.i = icmp slt i64 %position, 0
  %size_.i.i = getelementptr inbounds i8, ptr %0, i64 64
  %1 = load i64, ptr %size_.i.i, align 8, !noalias !104
  %cmp2.i.i = icmp slt i64 %1, %position
  %or.cond.i.i = select i1 %cmp.i.i, i1 true, i1 %cmp2.i.i
  br i1 %or.cond.i.i, label %if.then.i.i, label %if.end.i.i

if.then.i.i:                                      ; preds = %entry
  tail call void @_ZN5arrow6Status8FromArgsIJRA19_KcEEES0_NS_10StatusCodeEDpOT_(ptr sret(%"class.arrow::Status") align 8 %agg.result, i8 noundef signext 5, ptr noundef nonnull align 1 dereferenceable(19) @.str.2)
  br label %_ZN5arrow2io21FixedSizeBufferWriter4SeekEl.exit

if.end.i.i:                                       ; preds = %entry
  %position_.i.i = getelementptr inbounds i8, ptr %0, i64 72
  store i64 %position, ptr %position_.i.i, align 8, !noalias !104
  store ptr null, ptr %agg.result, align 8, !alias.scope !105
  br label %_ZN5arrow2io21FixedSizeBufferWriter4SeekEl.exit

_ZN5arrow2io21FixedSizeBufferWriter4SeekEl.exit:  ; preds = %if.then.i.i, %if.end.i.i
  ret void
}